target datalayout = "e-m:e-p270:32:32-p271:32:32-p272:64:64-i64:64-i128:128-f80:128-n8:16:32:64-S128"
target triple = "x86_64-pc-linux-gnu"

%struct.AVFilterContext = type { ptr, ptr, ptr, ptr, ptr, i32, ptr, ptr, i32, ptr, ptr, i32, i32, ptr, ptr, ptr, ptr, i32, ptr, i32, i32 }
%struct.AverageBlurContext = type { ptr, i32, i32, i32, i32, i32, i32, [4 x i32], [4 x i32], ptr, [16777216 x i16], i32, [2 x ptr] }
%struct.AVFilterLink = type { ptr, ptr, ptr, ptr, i32, i32, i32, i32, %struct.AVRational, i32, i32, i32, %struct.AVChannelLayout, %struct.AVRational, ptr, i32, %struct.AVFilterFormatsConfig, %struct.AVFilterFormatsConfig }
%struct.AVChannelLayout = type { i32, i32, %union.anon.1, ptr }
%union.anon.1 = type { i64 }
%struct.AVRational = type { i32, i32 }
%struct.AVFilterFormatsConfig = type { ptr, ptr, ptr, ptr, ptr }
%struct.AVFrame = type { [8 x ptr], [8 x i32], ptr, i32, i32, i32, i32, i32, %struct.AVRational, i64, i64, %struct.AVRational, i32, ptr, i32, i32, [8 x ptr], ptr, i32, ptr, i32, i32, i32, i32, i32, i32, i32, i64, ptr, i32, ptr, ptr, i64, i64, i64, i64, ptr, %struct.AVChannelLayout, i64 }
%struct.ThreadData = type { i32, i32, ptr, ptr, i32, i32 }

; Function Attrs: nounwind uwtable
define internal void @averageiir2d(ptr noundef %0, ptr noundef %1, ptr noundef %2, i32 noundef %3) #1 {
  %5 = alloca ptr, align 8
  %6 = alloca ptr, align 8
  %7 = alloca ptr, align 8
  %8 = alloca i32, align 4
  %9 = alloca ptr, align 8
  %10 = alloca i32, align 4
  %11 = alloca i32, align 4
  %12 = alloca i32, align 4
  %13 = alloca %struct.ThreadData, align 8
  store ptr %0, ptr %5, align 8, !tbaa !4
  store ptr %1, ptr %6, align 8, !tbaa !33
  store ptr %2, ptr %7, align 8, !tbaa !33
  store i32 %3, ptr %8, align 4, !tbaa !25
  call void @llvm.lifetime.start.p0(i64 8, ptr %9) #5
  %14 = load ptr, ptr %5, align 8, !tbaa !4
  %15 = getelementptr inbounds nuw %struct.AVFilterContext, ptr %14, i32 0, i32 9
  %16 = load ptr, ptr %15, align 8, !tbaa !9
  store ptr %16, ptr %9, align 8, !tbaa !22
  call void @llvm.lifetime.start.p0(i64 4, ptr %10) #5
  %17 = load ptr, ptr %9, align 8, !tbaa !22
  %18 = getelementptr inbounds nuw %struct.AverageBlurContext, ptr %17, i32 0, i32 7
  %19 = load i32, ptr %8, align 4, !tbaa !25
  %20 = sext i32 %19 to i64
  %21 = getelementptr inbounds [4 x i32], ptr %18, i64 0, i64 %20
  %22 = load i32, ptr %21, align 4, !tbaa !25
  store i32 %22, ptr %10, align 4, !tbaa !25
  call void @llvm.lifetime.start.p0(i64 4, ptr %11) #5
  %23 = load ptr, ptr %9, align 8, !tbaa !22
  %24 = getelementptr inbounds nuw %struct.AverageBlurContext, ptr %23, i32 0, i32 8
  %25 = load i32, ptr %8, align 4, !tbaa !25
  %26 = sext i32 %25 to i64
  %27 = getelementptr inbounds [4 x i32], ptr %24, i64 0, i64 %26
  %28 = load i32, ptr %27, align 4, !tbaa !25
  store i32 %28, ptr %11, align 4, !tbaa !25
  call void @llvm.lifetime.start.p0(i64 4, ptr %12) #5
  %29 = load ptr, ptr %9, align 8, !tbaa !22
  %30 = getelementptr inbounds nuw %struct.AverageBlurContext, ptr %29, i32 0, i32 5
  %31 = load i32, ptr %30, align 8, !tbaa !30
  %32 = load ptr, ptr %9, align 8, !tbaa !22
  %33 = getelementptr inbounds nuw %struct.AverageBlurContext, ptr %32, i32 0, i32 6
  %34 = load i32, ptr %33, align 4, !tbaa !26
  %35 = mul nsw i32 %31, %34
  %36 = sext i32 %35 to i64
  %37 = icmp uge i64 %36, 16777216
  %38 = zext i1 %37 to i32
  store i32 %38, ptr %12, align 4, !tbaa !25
  call void @llvm.lifetime.start.p0(i64 32, ptr %13) #5
  %39 = load i32, ptr %10, align 4, !tbaa !25
  %40 = getelementptr inbounds nuw %struct.ThreadData, ptr %13, i32 0, i32 1
  store i32 %39, ptr %40, align 4, !tbaa !62
  %41 = load i32, ptr %11, align 4, !tbaa !25
  %42 = getelementptr inbounds nuw %struct.ThreadData, ptr %13, i32 0, i32 0
  store i32 %41, ptr %42, align 8, !tbaa !64
  %43 = load ptr, ptr %6, align 8, !tbaa !33
  %44 = getelementptr inbounds nuw %struct.AVFrame, ptr %43, i32 0, i32 0
  %45 = load i32, ptr %8, align 4, !tbaa !25
  %46 = sext i32 %45 to i64
  %47 = getelementptr inbounds [8 x ptr], ptr %44, i64 0, i64 %46
  %48 = load ptr, ptr %47, align 8, !tbaa !24
  %49 = getelementptr inbounds nuw %struct.ThreadData, ptr %13, i32 0, i32 2
  store ptr %48, ptr %49, align 8, !tbaa !65
  %50 = load ptr, ptr %6, align 8, !tbaa !33
  %51 = getelementptr inbounds nuw %struct.AVFrame, ptr %50, i32 0, i32 1
  %52 = load i32, ptr %8, align 4, !tbaa !25
  %53 = sext i32 %52 to i64
  %54 = getelementptr inbounds [8 x i32], ptr %51, i64 0, i64 %53
  %55 = load i32, ptr %54, align 4, !tbaa !25
  %56 = getelementptr inbounds nuw %struct.ThreadData, ptr %13, i32 0, i32 4
  store i32 %55, ptr %56, align 8, !tbaa !66
  %57 = load ptr, ptr %7, align 8, !tbaa !33
  %58 = getelementptr inbounds nuw %struct.AVFrame, ptr %57, i32 0, i32 0
  %59 = load i32, ptr %8, align 4, !tbaa !25
  %60 = sext i32 %59 to i64
  %61 = getelementptr inbounds [8 x ptr], ptr %58, i64 0, i64 %60
  %62 = load ptr, ptr %61, align 8, !tbaa !24
  %63 = getelementptr inbounds nuw %struct.ThreadData, ptr %13, i32 0, i32 3
  store ptr %62, ptr %63, align 8, !tbaa !67
  %64 = load ptr, ptr %7, align 8, !tbaa !33
  %65 = getelementptr inbounds nuw %struct.AVFrame, ptr %64, i32 0, i32 1
  %66 = load i32, ptr %8, align 4, !tbaa !25
  %67 = sext i32 %66 to i64
  %68 = getelementptr inbounds [8 x i32], ptr %65, i64 0, i64 %67
  %69 = load i32, ptr %68, align 4, !tbaa !25
  %70 = getelementptr inbounds nuw %struct.ThreadData, ptr %13, i32 0, i32 5
  store i32 %69, ptr %70, align 4, !tbaa !68
  %71 = load ptr, ptr %9, align 8, !tbaa !22
  %72 = getelementptr inbounds nuw %struct.AverageBlurContext, ptr %71, i32 0, i32 12
  %73 = load i32, ptr %12, align 4, !tbaa !25
  %74 = sext i32 %73 to i64
  %75 = getelementptr inbounds [2 x ptr], ptr %72, i64 0, i64 %74
  %76 = load ptr, ptr %75, align 8, !tbaa !61
  %77 = load ptr, ptr %5, align 8, !tbaa !4
  %78 = call i32 %76(ptr noundef %77, ptr noundef %13, i32 noundef 0, i32 noundef 0)
  call void @llvm.lifetime.end.p0(i64 32, ptr %13) #5
  call void @llvm.lifetime.end.p0(i64 4, ptr %12) #5
  call void @llvm.lifetime.end.p0(i64 4, ptr %11) #5
  call void @llvm.lifetime.end.p0(i64 4, ptr %10) #5
  call void @llvm.lifetime.end.p0(i64 8, ptr %9) #5
  ret void
}

; Function Attrs: nounwind uwtable
define internal i32 @filter_frame(ptr noundef %0, ptr noundef %1) #1 {
  %3 = alloca i32, align 4
  %4 = alloca ptr, align 8
  %5 = alloca ptr, align 8
  %6 = alloca ptr, align 8
  %7 = alloca ptr, align 8
  %8 = alloca ptr, align 8
  %9 = alloca ptr, align 8
  %10 = alloca i32, align 4
  %11 = alloca i32, align 4
  %12 = alloca i32, align 4
  %13 = alloca i32, align 4
  store ptr %0, ptr %4, align 8, !tbaa !31
  store ptr %1, ptr %5, align 8, !tbaa !33
  call void @llvm.lifetime.start.p0(i64 8, ptr %6) #5
  %14 = load ptr, ptr %4, align 8, !tbaa !31
  %15 = getelementptr inbounds nuw %struct.AVFilterLink, ptr %14, i32 0, i32 2
  %16 = load ptr, ptr %15, align 8, !tbaa !35
  store ptr %16, ptr %6, align 8, !tbaa !4
  call void @llvm.lifetime.start.p0(i64 8, ptr %7) #5
  %17 = load ptr, ptr %6, align 8, !tbaa !4
  %18 = getelementptr inbounds nuw %struct.AVFilterContext, ptr %17, i32 0, i32 9
  %19 = load ptr, ptr %18, align 8, !tbaa !9
  store ptr %19, ptr %7, align 8, !tbaa !22
  call void @llvm.lifetime.start.p0(i64 8, ptr %8) #5
  %20 = load ptr, ptr %6, align 8, !tbaa !4
  %21 = getelementptr inbounds nuw %struct.AVFilterContext, ptr %20, i32 0, i32 7
  %22 = load ptr, ptr %21, align 8, !tbaa !43
  %23 = getelementptr inbounds ptr, ptr %22, i64 0
  %24 = load ptr, ptr %23, align 8, !tbaa !31
  store ptr %24, ptr %8, align 8, !tbaa !31
  call void @llvm.lifetime.start.p0(i64 8, ptr %9) #5
  call void @llvm.lifetime.start.p0(i64 4, ptr %10) #5
  %25 = load ptr, ptr %8, align 8, !tbaa !31
  %26 = load ptr, ptr %8, align 8, !tbaa !31
  %27 = getelementptr inbounds nuw %struct.AVFilterLink, ptr %26, i32 0, i32 6
  %28 = load i32, ptr %27, align 8, !tbaa !44
  %29 = load ptr, ptr %8, align 8, !tbaa !31
  %30 = getelementptr inbounds nuw %struct.AVFilterLink, ptr %29, i32 0, i32 7
  %31 = load i32, ptr %30, align 4, !tbaa !45
  %32 = call ptr @ff_get_video_buffer(ptr noundef %25, i32 noundef %28, i32 noundef %31)
  store ptr %32, ptr %9, align 8, !tbaa !33
  %33 = load ptr, ptr %9, align 8, !tbaa !33
  %34 = icmp ne ptr %33, null
  br i1 %34, label %36, label %35

35:                                               ; preds = %2
  call void @av_frame_free(ptr noundef %5)
  store i32 -12, ptr %3, align 4
  store i32 1, ptr %11, align 4
  br label %129

36:                                               ; preds = %2
  %37 = load ptr, ptr %9, align 8, !tbaa !33
  %38 = load ptr, ptr %5, align 8, !tbaa !33
  %39 = call i32 @av_frame_copy_props(ptr noundef %37, ptr noundef %38)
  store i32 0, ptr %10, align 4, !tbaa !25
  br label %40

40:                                               ; preds = %122, %36
  %41 = load i32, ptr %10, align 4, !tbaa !25
  %42 = load ptr, ptr %7, align 8, !tbaa !22
  %43 = getelementptr inbounds nuw %struct.AverageBlurContext, ptr %42, i32 0, i32 11
  %44 = load i32, ptr %43, align 8, !tbaa !46
  %45 = icmp slt i32 %41, %44
  br i1 %45, label %46, label %125

46:                                               ; preds = %40
  call void @llvm.lifetime.start.p0(i64 4, ptr %12) #5
  %47 = load ptr, ptr %7, align 8, !tbaa !22
  %48 = getelementptr inbounds nuw %struct.AverageBlurContext, ptr %47, i32 0, i32 8
  %49 = load i32, ptr %10, align 4, !tbaa !25
  %50 = sext i32 %49 to i64
  %51 = getelementptr inbounds [4 x i32], ptr %48, i64 0, i64 %50
  %52 = load i32, ptr %51, align 4, !tbaa !25
  store i32 %52, ptr %12, align 4, !tbaa !25
  call void @llvm.lifetime.start.p0(i64 4, ptr %13) #5
  %53 = load ptr, ptr %7, align 8, !tbaa !22
  %54 = getelementptr inbounds nuw %struct.AverageBlurContext, ptr %53, i32 0, i32 7
  %55 = load i32, ptr %10, align 4, !tbaa !25
  %56 = sext i32 %55 to i64
  %57 = getelementptr inbounds [4 x i32], ptr %54, i64 0, i64 %56
  %58 = load i32, ptr %57, align 4, !tbaa !25
  store i32 %58, ptr %13, align 4, !tbaa !25
  %59 = load ptr, ptr %7, align 8, !tbaa !22
  %60 = getelementptr inbounds nuw %struct.AverageBlurContext, ptr %59, i32 0, i32 3
  %61 = load i32, ptr %60, align 8, !tbaa !47
  %62 = load i32, ptr %10, align 4, !tbaa !25
  %63 = shl i32 1, %62
  %64 = and i32 %61, %63
  %65 = icmp ne i32 %64, 0
  br i1 %65, label %114, label %66

66:                                               ; preds = %46
  %67 = load ptr, ptr %9, align 8, !tbaa !33
  %68 = getelementptr inbounds nuw %struct.AVFrame, ptr %67, i32 0, i32 0
  %69 = load i32, ptr %10, align 4, !tbaa !25
  %70 = sext i32 %69 to i64
  %71 = getelementptr inbounds [8 x ptr], ptr %68, i64 0, i64 %70
  %72 = load ptr, ptr %71, align 8, !tbaa !24
  %73 = load ptr, ptr %5, align 8, !tbaa !33
  %74 = getelementptr inbounds nuw %struct.AVFrame, ptr %73, i32 0, i32 0
  %75 = load i32, ptr %10, align 4, !tbaa !25
  %76 = sext i32 %75 to i64
  %77 = getelementptr inbounds [8 x ptr], ptr %74, i64 0, i64 %76
  %78 = load ptr, ptr %77, align 8, !tbaa !24
  %79 = icmp ne ptr %72, %78
  br i1 %79, label %80, label %113

80:                                               ; preds = %66
  %81 = load ptr, ptr %9, align 8, !tbaa !33
  %82 = getelementptr inbounds nuw %struct.AVFrame, ptr %81, i32 0, i32 0
  %83 = load i32, ptr %10, align 4, !tbaa !25
  %84 = sext i32 %83 to i64
  %85 = getelementptr inbounds [8 x ptr], ptr %82, i64 0, i64 %84
  %86 = load ptr, ptr %85, align 8, !tbaa !24
  %87 = load ptr, ptr %9, align 8, !tbaa !33
  %88 = getelementptr inbounds nuw %struct.AVFrame, ptr %87, i32 0, i32 1
  %89 = load i32, ptr %10, align 4, !tbaa !25
  %90 = sext i32 %89 to i64
  %91 = getelementptr inbounds [8 x i32], ptr %88, i64 0, i64 %90
  %92 = load i32, ptr %91, align 4, !tbaa !25
  %93 = load ptr, ptr %5, align 8, !tbaa !33
  %94 = getelementptr inbounds nuw %struct.AVFrame, ptr %93, i32 0, i32 0
  %95 = load i32, ptr %10, align 4, !tbaa !25
  %96 = sext i32 %95 to i64
  %97 = getelementptr inbounds [8 x ptr], ptr %94, i64 0, i64 %96
  %98 = load ptr, ptr %97, align 8, !tbaa !24
  %99 = load ptr, ptr %5, align 8, !tbaa !33
  %100 = getelementptr inbounds nuw %struct.AVFrame, ptr %99, i32 0, i32 1
  %101 = load i32, ptr %10, align 4, !tbaa !25
  %102 = sext i32 %101 to i64
  %103 = getelementptr inbounds [8 x i32], ptr %100, i64 0, i64 %102
  %104 = load i32, ptr %103, align 4, !tbaa !25
  %105 = load i32, ptr %13, align 4, !tbaa !25
  %106 = load ptr, ptr %7, align 8, !tbaa !22
  %107 = getelementptr inbounds nuw %struct.AverageBlurContext, ptr %106, i32 0, i32 4
  %108 = load i32, ptr %107, align 4, !tbaa !48
  %109 = add nsw i32 %108, 7
  %110 = sdiv i32 %109, 8
  %111 = mul nsw i32 %105, %110
  %112 = load i32, ptr %12, align 4, !tbaa !25
  call void @av_image_copy_plane(ptr noundef %86, i32 noundef %92, ptr noundef %98, i32 noundef %104, i32 noundef %111, i32 noundef %112)
  br label %113

113:                                              ; preds = %80, %66
  store i32 4, ptr %11, align 4
  br label %119

114:                                              ; preds = %46
  %115 = load ptr, ptr %6, align 8, !tbaa !4
  %116 = load ptr, ptr %5, align 8, !tbaa !33
  %117 = load ptr, ptr %9, align 8, !tbaa !33
  %118 = load i32, ptr %10, align 4, !tbaa !25
  call void @averageiir2d(ptr noundef %115, ptr noundef %116, ptr noundef %117, i32 noundef %118)
  store i32 0, ptr %11, align 4
  br label %119

119:                                              ; preds = %114, %113
  call void @llvm.lifetime.end.p0(i64 4, ptr %13) #5
  call void @llvm.lifetime.end.p0(i64 4, ptr %12) #5
  %120 = load i32, ptr %11, align 4
  switch i32 %120, label %131 [
    i32 0, label %121
    i32 4, label %122
  ]

121:                                              ; preds = %119
  br label %122

122:                                              ; preds = %121, %119
  %123 = load i32, ptr %10, align 4, !tbaa !25
  %124 = add nsw i32 %123, 1
  store i32 %124, ptr %10, align 4, !tbaa !25
  br label %40, !llvm.loop !49

125:                                              ; preds = %40
  call void @av_frame_free(ptr noundef %5)
  %126 = load ptr, ptr %8, align 8, !tbaa !31
  %127 = load ptr, ptr %9, align 8, !tbaa !33
  %128 = call i32 @ff_filter_frame(ptr noundef %126, ptr noundef %127)
  store i32 %128, ptr %3, align 4
  store i32 1, ptr %11, align 4
  br label %129

129:                                              ; preds = %125, %35
  call void @llvm.lifetime.end.p0(i64 4, ptr %10) #5
  call void @llvm.lifetime.end.p0(i64 8, ptr %9) #5
  call void @llvm.lifetime.end.p0(i64 8, ptr %8) #5
  call void @llvm.lifetime.end.p0(i64 8, ptr %7) #5
  call void @llvm.lifetime.end.p0(i64 8, ptr %6) #5
  %130 = load i32, ptr %3, align 4
  ret i32 %130

131:                                              ; preds = %119
  unreachable
}