; Function Attrs: nounwind uwtable
define internal i32 @filter_frame(ptr noundef readonly captures(none) %0, ptr noundef %1) #1 {
  %3 = alloca %struct.ThreadData, align 8
  %4 = alloca ptr, align 8
  store ptr %1, ptr %4, align 8, !tbaa !30
  %5 = getelementptr inbounds nuw i8, ptr %0, i64 16
  %6 = load ptr, ptr %5, align 8, !tbaa !32
  %7 = getelementptr inbounds nuw i8, ptr %6, i64 72
  %8 = load ptr, ptr %7, align 8, !tbaa !4
  %9 = getelementptr inbounds nuw i8, ptr %6, i64 56
  %10 = load ptr, ptr %9, align 8, !tbaa !41
  %11 = load ptr, ptr %10, align 8, !tbaa !42
  %12 = getelementptr inbounds nuw i8, ptr %11, i64 40
  %13 = load i32, ptr %12, align 8, !tbaa !44
  %14 = getelementptr inbounds nuw i8, ptr %11, i64 44
  %15 = load i32, ptr %14, align 4, !tbaa !45
  %16 = tail call ptr @ff_get_video_buffer(ptr noundef %11, i32 noundef %13, i32 noundef %15) #6
  %.not = icmp eq ptr %16, null
  br i1 %.not, label %17, label %18

17:                                               ; preds = %2
  call void @av_frame_free(ptr noundef nonnull %4) #6
  br label %92

18:                                               ; preds = %2
  %19 = tail call i32 @av_frame_copy_props(ptr noundef nonnull %16, ptr noundef %1) #6
  %20 = getelementptr inbounds nuw i8, ptr %8, i64 33554504
  %21 = load i32, ptr %20, align 8, !tbaa !46
  %22 = icmp sgt i32 %21, 0
  br i1 %22, label %.lr.ph, label %._crit_edge

.lr.ph:                                           ; preds = %18
  %23 = getelementptr inbounds nuw i8, ptr %8, i64 48
  %24 = getelementptr inbounds nuw i8, ptr %8, i64 32
  %25 = getelementptr inbounds nuw i8, ptr %8, i64 16
  %26 = getelementptr inbounds nuw i8, ptr %3, i64 4
  %27 = getelementptr inbounds nuw i8, ptr %3, i64 8
  %28 = getelementptr inbounds nuw i8, ptr %3, i64 24
  %29 = getelementptr inbounds nuw i8, ptr %3, i64 16
  %30 = getelementptr inbounds nuw i8, ptr %16, i64 64
  %31 = getelementptr inbounds nuw i8, ptr %3, i64 28
  %32 = getelementptr inbounds nuw i8, ptr %8, i64 20
  br label %33

33:                                               ; preds = %.lr.ph, %87
  %indvars.iv = phi i64 [ 0, %.lr.ph ], [ %indvars.iv.next, %87 ]
  %34 = getelementptr inbounds nuw [4 x i32], ptr %23, i64 0, i64 %indvars.iv
  %35 = load i32, ptr %34, align 4, !tbaa !24
  %36 = getelementptr inbounds nuw [4 x i32], ptr %24, i64 0, i64 %indvars.iv
  %37 = load i32, ptr %36, align 4, !tbaa !24
  %38 = load i32, ptr %25, align 8, !tbaa !47
  %39 = trunc nuw nsw i64 %indvars.iv to i32
  %40 = shl nuw i32 1, %39
  %41 = and i32 %38, %40
  %.not38 = icmp eq i32 %41, 0
  br i1 %.not38, label %42, label %58

42:                                               ; preds = %33
  %43 = getelementptr inbounds nuw [8 x ptr], ptr %16, i64 0, i64 %indvars.iv
  %44 = load ptr, ptr %43, align 8, !tbaa !48
  %45 = load ptr, ptr %4, align 8, !tbaa !30
  %46 = getelementptr inbounds nuw [8 x ptr], ptr %45, i64 0, i64 %indvars.iv
  %47 = load ptr, ptr %46, align 8, !tbaa !48
  %.not39 = icmp eq ptr %44, %47
  br i1 %.not39, label %87, label %48

48:                                               ; preds = %42
  %49 = getelementptr inbounds nuw [8 x i32], ptr %30, i64 0, i64 %indvars.iv
  %50 = load i32, ptr %49, align 4, !tbaa !24
  %51 = getelementptr inbounds nuw i8, ptr %45, i64 64
  %52 = getelementptr inbounds nuw [8 x i32], ptr %51, i64 0, i64 %indvars.iv
  %53 = load i32, ptr %52, align 4, !tbaa !24
  %54 = load i32, ptr %32, align 4, !tbaa !49
  %55 = add nsw i32 %54, 7
  %56 = sdiv i32 %55, 8
  %57 = mul nsw i32 %56, %37
  call void @av_image_copy_plane(ptr noundef %44, i32 noundef %50, ptr noundef %47, i32 noundef %53, i32 noundef %57, i32 noundef %35) #6
  br label %87

58:                                               ; preds = %33
  %59 = load ptr, ptr %4, align 8, !tbaa !30
  %60 = load ptr, ptr %7, align 8, !tbaa !4
  %61 = getelementptr inbounds nuw i8, ptr %60, i64 32
  %62 = getelementptr inbounds nuw [4 x i32], ptr %61, i64 0, i64 %indvars.iv
  %63 = load i32, ptr %62, align 4, !tbaa !24
  %64 = getelementptr inbounds nuw i8, ptr %60, i64 48
  %65 = getelementptr inbounds nuw [4 x i32], ptr %64, i64 0, i64 %indvars.iv
  %66 = load i32, ptr %65, align 4, !tbaa !24
  %67 = getelementptr inbounds nuw i8, ptr %60, i64 24
  %68 = load i32, ptr %67, align 8, !tbaa !25
  %69 = getelementptr inbounds nuw i8, ptr %60, i64 28
  %70 = load i32, ptr %69, align 4, !tbaa !20
  %71 = mul nsw i32 %70, %68
  %72 = icmp ugt i32 %71, 16777215
  call void @llvm.lifetime.start.p0(i64 32, ptr nonnull %3) #6
  store i32 %63, ptr %26, align 4, !tbaa !50
  store i32 %66, ptr %3, align 8, !tbaa !52
  %73 = getelementptr inbounds nuw [8 x ptr], ptr %59, i64 0, i64 %indvars.iv
  %74 = load ptr, ptr %73, align 8, !tbaa !48
  store ptr %74, ptr %27, align 8, !tbaa !53
  %75 = getelementptr inbounds nuw i8, ptr %59, i64 64
  %76 = getelementptr inbounds nuw [8 x i32], ptr %75, i64 0, i64 %indvars.iv
  %77 = load i32, ptr %76, align 4, !tbaa !24
  store i32 %77, ptr %28, align 8, !tbaa !54
  %78 = getelementptr inbounds nuw [8 x ptr], ptr %16, i64 0, i64 %indvars.iv
  %79 = load ptr, ptr %78, align 8, !tbaa !48
  store ptr %79, ptr %29, align 8, !tbaa !55
  %80 = getelementptr inbounds nuw [8 x i32], ptr %30, i64 0, i64 %indvars.iv
  %81 = load i32, ptr %80, align 4, !tbaa !24
  store i32 %81, ptr %31, align 4, !tbaa !56
  %82 = getelementptr inbounds nuw i8, ptr %60, i64 33554512
  %83 = zext i1 %72 to i64
  %84 = getelementptr inbounds nuw [2 x ptr], ptr %82, i64 0, i64 %83
  %85 = load ptr, ptr %84, align 8, !tbaa !57
  %86 = call i32 %85(ptr noundef %6, ptr noundef nonnull %3, i32 noundef 0, i32 noundef 0) #6
  call void @llvm.lifetime.end.p0(i64 32, ptr nonnull %3) #6
  br label %87

87:                                               ; preds = %42, %48, %58
  %indvars.iv.next = add nuw nsw i64 %indvars.iv, 1
  %88 = load i32, ptr %20, align 8, !tbaa !46
  %89 = sext i32 %88 to i64
  %90 = icmp slt i64 %indvars.iv.next, %89
  br i1 %90, label %33, label %._crit_edge, !llvm.loop !58

._crit_edge:                                      ; preds = %87, %18
  call void @av_frame_free(ptr noundef nonnull %4) #6
  %91 = call i32 @ff_filter_frame(ptr noundef %11, ptr noundef nonnull %16) #6
  br label %92

92:                                               ; preds = %._crit_edge, %17
  %.0 = phi i32 [ %91, %._crit_edge ], [ -12, %17 ]
  ret i32 %.0
}